Certificate:
    Data:
        Version: 1 (0x0)
        Serial Number: 1 (0x1)
        Signature Algorithm: sha1WithRSAEncryption
        Issuer: C=CA, ST=California, O=All That is Evil, OU=All That is Evil Root CA
        Validity
            Not Before: Jun  4 17:46:36 2014 GMT
            Not After : May 11 17:46:36 2114 GMT
        Subject: C=CA, ST=California, O=All That is Evil, OU=All That is Evil Site, CN=*
        Subject Public Key Info:
            Public Key Algorithm: rsaEncryption
            RSA Public Key: (1024 bit)
                Modulus (1024 bit):
                    00:c4:d2:3f:0a:ad:03:b7:fb:fb:c4:0e:b1:39:78:
                    18:02:b5:aa:4f:61:4d:6b:55:2c:01:f8:3d:83:32:
                    5c:5d:7c:d6:13:cc:e2:c3:15:0b:ed:92:58:35:90:
                    49:47:0a:10:36:dc:36:9c:c4:22:75:64:b7:69:8e:
                    10:30:bc:64:ac:d8:cf:a5:5d:eb:27:b2:e7:a5:db:
                    2e:47:4f:b2:f5:b6:97:da:1a:0a:6e:15:14:fc:4b:
                    86:6a:16:b8:93:63:30:32:7f:dd:87:39:01:cc:17:
                    27:6c:4e:cc:be:4f:02:75:44:46:fe:52:58:7b:43:
                    da:a1:36:5b:ec:83:b3:3f:db
                Exponent: 65537 (0x10001)
    Signature Algorithm: sha1WithRSAEncryption
        a8:fe:44:33:5e:88:2c:e5:b7:ea:6a:04:62:92:d8:47:4c:bc:
        fd:2f:c3:33:fb:6a:41:67:c8:f4:ae:87:86:89:a9:08:c4:a2:
        56:54:73:42:25:fa:62:59:b4:4f:39:43:9b:63:97:3b:a0:ee:
        c9:bd:ff:1f:00:ae:92:52:82:b0:96:34:c9:bd:7a:ec:57:ef:
        ba:cf:72:cf:62:bd:17:db:47:b8:58:b5:5b:e9:e4:25:0e:2f:
        7a:41:7a:68:7d:fd:c7:7d:e1:7b:e0:b9:6c:4a:d9:5c:aa:5e:
        a1:61:62:80:09:69:59:16:7d:71:18:2b:8e:8f:2f:d5:94:93:
        3c:29
-----BEGIN CERTIFICATE-----
MIICOjCCAaMCAQEwDQYJKoZIhvcNAQEFBQAwYDELMAkGA1UEBhMCQ0ExEzARBgNV
BAgTCkNhbGlmb3JuaWExGTAXBgNVBAoTEEFsbCBUaGF0IGlzIEV2aWwxITAfBgNV
BAsTGEFsbCBUaGF0IGlzIEV2aWwgUm9vdCBDQTAgFw0xNDA2MDQxNzQ2MzZaGA8y
MTE0MDUxMTE3NDYzNlowaTELMAkGA1UEBhMCQ0ExEzARBgNVBAgTCkNhbGlmb3Ju
aWExGTAXBgNVBAoTEEFsbCBUaGF0IGlzIEV2aWwxHjAcBgNVBAsTFUFsbCBUaGF0
IGlzIEV2aWwgU2l0ZTEKMAgGA1UEAxQBKjCBnzANBgkqhkiG9w0BAQEFAAOBjQAw
gYkCgYEAxNI/Cq0Dt/v7xA6xOXgYArWqT2FNa1UsAfg9gzJcXXzWE8ziwxUL7ZJY
NZBJRwoQNtw2nMQidWS3aY4QMLxkrNjPpV3rJ7LnpdsuR0+y9baX2hoKbhUU/EuG
aha4k2MwMn/dhzkBzBcnbE7Mvk8CdURG/lJYe0PaoTZb7IOzP9sCAwEAATANBgkq
hkiG9w0BAQUFAAOBgQCo/kQzXogs5bfqagRikthHTLz9L8Mz+2pBZ8j0roeGiakI
xKJWVHNCJfpiWbRPOUObY5c7oO7Jvf8fAK6SUoKwljTJvXrsV++6z3LPYr0X20e4
WLVb6eQlDi96QXpoff3HfeF74LlsStlcql6hYWKACWlZFn1xGCuOjy/VlJM8KQ==
-----END CERTIFICATE-----
