Certificate:
    Data:
        Version: 3 (0x2)
        Serial Number:
            b9:6f:f6:ef:ab:b7:31:a9
        Signature Algorithm: sha1WithRSAEncryption
        Issuer: C=CA, ST=California, O=All That is Good, OU=All That is Good Root CA
        Validity
            Not Before: Jun  4 17:46:36 2014 GMT
            Not After : May 11 17:46:36 2114 GMT
        Subject: C=CA, ST=California, O=All That is Good, OU=All That is Good Root CA
        Subject Public Key Info:
            Public Key Algorithm: rsaEncryption
            RSA Public Key: (1024 bit)
                Modulus (1024 bit):
                    00:dd:31:54:4a:7d:8f:5c:37:bd:4c:d5:e8:54:fd:
                    06:d2:b9:0e:bd:89:d1:1d:22:17:7a:7e:14:0c:f2:
                    e6:4f:89:b4:41:ed:08:8d:2a:d1:4d:8e:05:92:ae:
                    0c:83:f6:59:59:94:58:ae:15:2b:78:12:94:70:89:
                    8a:af:9c:c8:a2:e8:c7:fd:e9:2e:d2:b1:7a:f5:bf:
                    18:4c:a9:56:0c:b7:3b:8b:00:96:c6:25:02:ab:f7:
                    97:94:30:7c:a0:bf:86:2a:55:2b:56:da:e1:d9:eb:
                    c1:ed:b1:8b:96:08:9e:26:f8:58:cb:ae:4a:cf:d9:
                    4c:73:b2:83:4d:db:d7:68:a7
                Exponent: 65537 (0x10001)
        X509v3 extensions:
            X509v3 Subject Key Identifier: 
                C2:D0:38:78:7D:3C:A3:CE:48:F2:25:FD:F9:AC:5B:80:DE:4B:F6:8B
            X509v3 Authority Key Identifier: 
                keyid:C2:D0:38:78:7D:3C:A3:CE:48:F2:25:FD:F9:AC:5B:80:DE:4B:F6:8B
                DirName:/C=CA/ST=California/O=All That is Good/OU=All That is Good Root CA
                serial:B9:6F:F6:EF:AB:B7:31:A9

            X509v3 Basic Constraints: 
                CA:TRUE
    Signature Algorithm: sha1WithRSAEncryption
        d1:3b:85:b0:7a:cb:cb:10:4d:cb:97:28:ad:7b:ea:a6:d5:1d:
        98:c7:b4:8c:d9:47:06:bc:ba:c3:aa:64:d5:97:65:d8:78:79:
        c9:66:87:9f:8c:aa:eb:ac:d6:65:95:c5:8b:ba:bd:f3:15:54:
        01:64:21:0e:82:98:e8:2a:9c:de:80:a3:90:4f:5f:5a:69:7f:
        d2:76:f9:f3:74:99:e2:9e:02:46:af:8c:04:e4:ea:5e:56:ee:
        ef:93:ff:0a:72:44:4d:6a:b6:96:de:92:17:a9:3b:8f:86:77:
        49:2a:0a:64:0e:2e:8d:26:04:c5:f6:e6:15:ea:ad:86:62:67:
        14:6c
-----BEGIN CERTIFICATE-----
MIIDBjCCAm+gAwIBAgIJALlv9u+rtzGpMA0GCSqGSIb3DQEBBQUAMGAxCzAJBgNV
BAYTAkNBMRMwEQYDVQQIEwpDYWxpZm9ybmlhMRkwFwYDVQQKExBBbGwgVGhhdCBp
cyBHb29kMSEwHwYDVQQLExhBbGwgVGhhdCBpcyBHb29kIFJvb3QgQ0EwIBcNMTQw
NjA0MTc0NjM2WhgPMjExNDA1MTExNzQ2MzZaMGAxCzAJBgNVBAYTAkNBMRMwEQYD
VQQIEwpDYWxpZm9ybmlhMRkwFwYDVQQKExBBbGwgVGhhdCBpcyBHb29kMSEwHwYD
VQQLExhBbGwgVGhhdCBpcyBHb29kIFJvb3QgQ0EwgZ8wDQYJKoZIhvcNAQEBBQAD
gY0AMIGJAoGBAN0xVEp9j1w3vUzV6FT9BtK5Dr2J0R0iF3p+FAzy5k+JtEHtCI0q
0U2OBZKuDIP2WVmUWK4VK3gSlHCJiq+cyKLox/3pLtKxevW/GEypVgy3O4sAlsYl
Aqv3l5QwfKC/hipVK1ba4dnrwe2xi5YInib4WMuuSs/ZTHOyg03b12inAgMBAAGj
gcUwgcIwHQYDVR0OBBYEFMLQOHh9PKPOSPIl/fmsW4DeS/aLMIGSBgNVHSMEgYow
gYeAFMLQOHh9PKPOSPIl/fmsW4DeS/aLoWSkYjBgMQswCQYDVQQGEwJDQTETMBEG
A1UECBMKQ2FsaWZvcm5pYTEZMBcGA1UEChMQQWxsIFRoYXQgaXMgR29vZDEhMB8G
A1UECxMYQWxsIFRoYXQgaXMgR29vZCBSb290IENBggkAuW/276u3MakwDAYDVR0T
BAUwAwEB/zANBgkqhkiG9w0BAQUFAAOBgQDRO4WwesvLEE3Llyite+qm1R2Yx7SM
2UcGvLrDqmTVl2XYeHnJZoefjKrrrNZllcWLur3zFVQBZCEOgpjoKpzegKOQT19a
aX/SdvnzdJningJGr4wE5OpeVu7vk/8KckRNaraW3pIXqTuPhndJKgpkDi6NJgTF
9uYV6q2GYmcUbA==
-----END CERTIFICATE-----
