Certificate Request:
    Data:
        Version: 0 (0x0)
        Subject: C=CA, ST=California, O=All That is Evil, OU=All That is Evil Site, CN=*
        Subject Public Key Info:
            Public Key Algorithm: rsaEncryption
            RSA Public Key: (1024 bit)
                Modulus (1024 bit):
                    00:c4:d2:3f:0a:ad:03:b7:fb:fb:c4:0e:b1:39:78:
                    18:02:b5:aa:4f:61:4d:6b:55:2c:01:f8:3d:83:32:
                    5c:5d:7c:d6:13:cc:e2:c3:15:0b:ed:92:58:35:90:
                    49:47:0a:10:36:dc:36:9c:c4:22:75:64:b7:69:8e:
                    10:30:bc:64:ac:d8:cf:a5:5d:eb:27:b2:e7:a5:db:
                    2e:47:4f:b2:f5:b6:97:da:1a:0a:6e:15:14:fc:4b:
                    86:6a:16:b8:93:63:30:32:7f:dd:87:39:01:cc:17:
                    27:6c:4e:cc:be:4f:02:75:44:46:fe:52:58:7b:43:
                    da:a1:36:5b:ec:83:b3:3f:db
                Exponent: 65537 (0x10001)
        Attributes:
            a0:00
    Signature Algorithm: sha1WithRSAEncryption
        35:7e:59:a7:c3:2e:56:7d:3f:8e:e3:63:0d:cc:de:b8:d7:6c:
        3a:d4:10:ab:08:90:ad:bd:af:c4:44:e2:b1:dc:b3:2a:de:1d:
        4c:35:93:fd:4a:95:86:9a:63:64:02:d5:fe:59:57:0a:b1:08:
        cc:b5:4a:1b:c8:1d:08:2e:cc:05:98:85:92:5a:69:5f:de:7c:
        a2:dc:d0:ef:ad:da:82:a6:a1:7e:0e:72:22:bf:a9:ca:7b:bc:
        3a:11:f7:9e:68:c3:04:40:ad:20:93:fe:d1:32:ab:86:fa:36:
        7c:96:ce:7b:d6:12:ab:3c:e9:a5:62:f6:2c:2d:b3:3d:06:b7:
        3d:f8
-----BEGIN CERTIFICATE REQUEST-----
MIIBqTCCARICAQAwaTELMAkGA1UEBhMCQ0ExEzARBgNVBAgTCkNhbGlmb3JuaWEx
GTAXBgNVBAoTEEFsbCBUaGF0IGlzIEV2aWwxHjAcBgNVBAsTFUFsbCBUaGF0IGlz
IEV2aWwgU2l0ZTEKMAgGA1UEAxQBKjCBnzANBgkqhkiG9w0BAQEFAAOBjQAwgYkC
gYEAxNI/Cq0Dt/v7xA6xOXgYArWqT2FNa1UsAfg9gzJcXXzWE8ziwxUL7ZJYNZBJ
RwoQNtw2nMQidWS3aY4QMLxkrNjPpV3rJ7LnpdsuR0+y9baX2hoKbhUU/EuGaha4
k2MwMn/dhzkBzBcnbE7Mvk8CdURG/lJYe0PaoTZb7IOzP9sCAwEAAaAAMA0GCSqG
SIb3DQEBBQUAA4GBADV+WafDLlZ9P47jYw3M3rjXbDrUEKsIkK29r8RE4rHcsyre
HUw1k/1KlYaaY2QC1f5ZVwqxCMy1ShvIHQguzAWYhZJaaV/efKLc0O+t2oKmoX4O
ciK/qcp7vDoR955owwRArSCT/tEyq4b6NnyWznvWEqs86aVi9iwtsz0Gtz34
-----END CERTIFICATE REQUEST-----
