Certificate:
    Data:
        Version: 3 (0x2)
        Serial Number:
            c4:3f:63:74:d1:c2:3f:8b
        Signature Algorithm: sha1WithRSAEncryption
        Issuer: C=CA, ST=California, O=All That is Evil, OU=All That is Evil Root CA
        Validity
            Not Before: Jun  4 17:46:36 2014 GMT
            Not After : May 11 17:46:36 2114 GMT
        Subject: C=CA, ST=California, O=All That is Evil, OU=All That is Evil Root CA
        Subject Public Key Info:
            Public Key Algorithm: rsaEncryption
            RSA Public Key: (1024 bit)
                Modulus (1024 bit):
                    00:aa:cc:0d:cf:8c:f6:be:8f:61:af:69:09:d8:b4:
                    9c:e3:7f:f1:81:1d:4d:c7:72:8f:cc:00:b4:60:01:
                    4f:15:39:14:42:34:7f:f5:7c:76:ec:29:20:17:b1:
                    44:e8:b8:ad:3a:8f:e1:6c:0f:4f:5d:82:d2:e0:8c:
                    91:18:3d:bd:84:a6:58:06:90:d4:06:d3:93:0a:27:
                    65:41:9b:8e:46:2d:28:d8:e4:60:d3:ec:ab:08:d5:
                    9b:1e:34:1d:c2:ad:e1:23:9b:23:9f:7d:90:57:b5:
                    e8:8d:a3:12:84:88:7a:e0:79:7b:a1:18:3d:30:2e:
                    f0:bf:e8:07:e0:bf:2d:32:47
                Exponent: 65537 (0x10001)
        X509v3 extensions:
            X509v3 Subject Key Identifier: 
                C5:27:18:DE:1E:17:5D:AA:D5:49:75:16:A6:45:E1:A6:49:1A:43:E3
            X509v3 Authority Key Identifier: 
                keyid:C5:27:18:DE:1E:17:5D:AA:D5:49:75:16:A6:45:E1:A6:49:1A:43:E3
                DirName:/C=CA/ST=California/O=All That is Evil/OU=All That is Evil Root CA
                serial:C4:3F:63:74:D1:C2:3F:8B

            X509v3 Basic Constraints: 
                CA:TRUE
    Signature Algorithm: sha1WithRSAEncryption
        a3:8e:07:86:f8:70:56:dc:df:f2:fa:57:fe:a2:b6:fc:db:6e:
        a7:b7:ec:f0:51:3a:f0:77:a3:6e:d7:2f:3b:cf:d8:b7:8a:7f:
        fd:d0:50:ca:85:77:b4:ce:d2:bf:f4:d2:70:31:ce:c1:9f:f9:
        66:9a:74:7f:2b:97:c1:aa:3c:d2:96:ff:37:e1:1d:c2:10:31:
        f4:8b:05:1e:1b:52:0e:52:66:12:eb:0a:b0:2a:4a:88:25:94:
        ed:2a:9c:16:03:90:7b:6c:2b:30:78:ce:65:6b:24:e0:f9:e8:
        87:65:2a:e1:5d:3d:ed:ec:84:db:60:3d:23:ab:0f:7e:80:99:
        60:55
-----BEGIN CERTIFICATE-----
MIIDBjCCAm+gAwIBAgIJAMQ/Y3TRwj+LMA0GCSqGSIb3DQEBBQUAMGAxCzAJBgNV
BAYTAkNBMRMwEQYDVQQIEwpDYWxpZm9ybmlhMRkwFwYDVQQKExBBbGwgVGhhdCBp
cyBFdmlsMSEwHwYDVQQLExhBbGwgVGhhdCBpcyBFdmlsIFJvb3QgQ0EwIBcNMTQw
NjA0MTc0NjM2WhgPMjExNDA1MTExNzQ2MzZaMGAxCzAJBgNVBAYTAkNBMRMwEQYD
VQQIEwpDYWxpZm9ybmlhMRkwFwYDVQQKExBBbGwgVGhhdCBpcyBFdmlsMSEwHwYD
VQQLExhBbGwgVGhhdCBpcyBFdmlsIFJvb3QgQ0EwgZ8wDQYJKoZIhvcNAQEBBQAD
gY0AMIGJAoGBAKrMDc+M9r6PYa9pCdi0nON/8YEdTcdyj8wAtGABTxU5FEI0f/V8
duwpIBexROi4rTqP4WwPT12C0uCMkRg9vYSmWAaQ1AbTkwonZUGbjkYtKNjkYNPs
qwjVmx40HcKt4SObI599kFe16I2jEoSIeuB5e6EYPTAu8L/oB+C/LTJHAgMBAAGj
gcUwgcIwHQYDVR0OBBYEFMUnGN4eF12q1Ul1FqZF4aZJGkPjMIGSBgNVHSMEgYow
gYeAFMUnGN4eF12q1Ul1FqZF4aZJGkPjoWSkYjBgMQswCQYDVQQGEwJDQTETMBEG
A1UECBMKQ2FsaWZvcm5pYTEZMBcGA1UEChMQQWxsIFRoYXQgaXMgRXZpbDEhMB8G
A1UECxMYQWxsIFRoYXQgaXMgRXZpbCBSb290IENBggkAxD9jdNHCP4swDAYDVR0T
BAUwAwEB/zANBgkqhkiG9w0BAQUFAAOBgQCjjgeG+HBW3N/y+lf+orb8226nt+zw
UTrwd6Nu1y87z9i3in/90FDKhXe0ztK/9NJwMc7Bn/lmmnR/K5fBqjzSlv834R3C
EDH0iwUeG1IOUmYS6wqwKkqIJZTtKpwWA5B7bCsweM5layTg+eiHZSrhXT3t7ITb
YD0jqw9+gJlgVQ==
-----END CERTIFICATE-----
