Certificate:
    Data:
        Version: 1 (0x0)
        Serial Number: 1 (0x1)
        Signature Algorithm: sha1WithRSAEncryption
        Issuer: C=CA, ST=California, O=All That is Good, OU=All That is Good Root CA
        Validity
            Not Before: Jun  4 17:46:36 2014 GMT
            Not After : May 11 17:46:36 2114 GMT
        Subject: C=CA, ST=California, O=All That is Good, OU=All That is Good Site, CN=localhost
        Subject Public Key Info:
            Public Key Algorithm: rsaEncryption
            RSA Public Key: (1024 bit)
                Modulus (1024 bit):
                    00:ab:c9:bb:0a:6e:7a:b5:d8:40:a2:fb:83:47:e6:
                    a5:87:08:47:76:d1:ea:e7:16:70:21:cd:18:79:8b:
                    27:40:80:10:1a:3b:b3:f8:2f:7b:88:d3:79:1e:b2:
                    54:8f:2e:73:41:83:13:6f:8c:6d:58:f8:80:26:19:
                    39:ae:8f:d1:c9:c7:c0:52:45:9b:2c:50:39:13:18:
                    34:12:10:22:cb:90:a0:64:85:df:b3:7f:c1:17:94:
                    50:c1:6b:ee:83:23:72:95:aa:87:2b:6a:0f:89:96:
                    8e:85:b4:fc:d6:00:fe:97:a3:46:69:4c:53:67:0d:
                    4a:ab:f5:b5:78:c9:88:34:93
                Exponent: 65537 (0x10001)
    Signature Algorithm: sha1WithRSAEncryption
        32:b4:ab:b1:27:e1:72:53:fc:74:82:f7:95:6c:7d:ec:0e:f9:
        43:c5:2b:01:46:2f:f9:fd:ac:39:4c:90:4a:69:81:88:a6:fe:
        63:63:9f:a4:23:21:b5:88:53:c5:d4:e1:cf:90:48:eb:a0:eb:
        4a:6a:26:90:b6:ca:c0:fd:04:cd:66:6e:12:e8:63:91:e8:0f:
        46:a9:ff:a8:4a:c1:cf:b4:c4:61:4d:a2:02:25:77:d7:28:05:
        38:58:5c:8e:d2:91:c8:f1:63:d4:fb:4a:4e:6f:0c:2f:66:4d:
        b5:54:91:6e:27:1c:8c:d0:e5:a2:73:4c:ae:f8:8d:5a:63:2d:
        96:be
-----BEGIN CERTIFICATE-----
MIICQjCCAasCAQEwDQYJKoZIhvcNAQEFBQAwYDELMAkGA1UEBhMCQ0ExEzARBgNV
BAgTCkNhbGlmb3JuaWExGTAXBgNVBAoTEEFsbCBUaGF0IGlzIEdvb2QxITAfBgNV
BAsTGEFsbCBUaGF0IGlzIEdvb2QgUm9vdCBDQTAgFw0xNDA2MDQxNzQ2MzZaGA8y
MTE0MDUxMTE3NDYzNlowcTELMAkGA1UEBhMCQ0ExEzARBgNVBAgTCkNhbGlmb3Ju
aWExGTAXBgNVBAoTEEFsbCBUaGF0IGlzIEdvb2QxHjAcBgNVBAsTFUFsbCBUaGF0
IGlzIEdvb2QgU2l0ZTESMBAGA1UEAxMJbG9jYWxob3N0MIGfMA0GCSqGSIb3DQEB
AQUAA4GNADCBiQKBgQCrybsKbnq12ECi+4NH5qWHCEd20ernFnAhzRh5iydAgBAa
O7P4L3uI03keslSPLnNBgxNvjG1Y+IAmGTmuj9HJx8BSRZssUDkTGDQSECLLkKBk
hd+zf8EXlFDBa+6DI3KVqocrag+Jlo6FtPzWAP6Xo0ZpTFNnDUqr9bV4yYg0kwID
AQABMA0GCSqGSIb3DQEBBQUAA4GBADK0q7En4XJT/HSC95VsfewO+UPFKwFGL/n9
rDlMkEppgYim/mNjn6QjIbWIU8XU4c+QSOug60pqJpC2ysD9BM1mbhLoY5HoD0ap
/6hKwc+0xGFNogIld9coBThYXI7SkcjxY9T7Sk5vDC9mTbVUkW4nHIzQ5aJzTK74
jVpjLZa+
-----END CERTIFICATE-----
