Certificate Request:
    Data:
        Version: 0 (0x0)
        Subject: C=CA, ST=California, O=All That is Good, OU=All That is Good Site, CN=localhost
        Subject Public Key Info:
            Public Key Algorithm: rsaEncryption
            RSA Public Key: (1024 bit)
                Modulus (1024 bit):
                    00:ab:c9:bb:0a:6e:7a:b5:d8:40:a2:fb:83:47:e6:
                    a5:87:08:47:76:d1:ea:e7:16:70:21:cd:18:79:8b:
                    27:40:80:10:1a:3b:b3:f8:2f:7b:88:d3:79:1e:b2:
                    54:8f:2e:73:41:83:13:6f:8c:6d:58:f8:80:26:19:
                    39:ae:8f:d1:c9:c7:c0:52:45:9b:2c:50:39:13:18:
                    34:12:10:22:cb:90:a0:64:85:df:b3:7f:c1:17:94:
                    50:c1:6b:ee:83:23:72:95:aa:87:2b:6a:0f:89:96:
                    8e:85:b4:fc:d6:00:fe:97:a3:46:69:4c:53:67:0d:
                    4a:ab:f5:b5:78:c9:88:34:93
                Exponent: 65537 (0x10001)
        Attributes:
            a0:00
    Signature Algorithm: sha1WithRSAEncryption
        4d:4c:d5:31:ef:1c:04:b0:a9:50:f4:98:e9:31:66:b2:44:f2:
        3c:80:97:a0:9b:20:3c:a1:7a:69:33:7f:5a:23:2a:2f:ac:12:
        15:f4:94:54:15:4f:3c:a0:d7:d2:c2:33:7e:e1:fd:c1:10:39:
        39:f2:28:bd:c7:d6:c2:36:c6:a0:d8:5f:d7:2f:56:92:07:e6:
        9d:8b:52:d3:93:0a:34:34:c8:e7:3a:7c:3d:48:73:6c:63:14:
        1f:a7:d1:bd:38:9f:ca:f8:84:33:db:9c:6b:80:86:a2:e5:4d:
        53:7d:c6:98:b3:7e:3a:f1:87:e1:b1:5c:81:dc:50:68:a9:91:
        19:aa
-----BEGIN CERTIFICATE REQUEST-----
MIIBsTCCARoCAQAwcTELMAkGA1UEBhMCQ0ExEzARBgNVBAgTCkNhbGlmb3JuaWEx
GTAXBgNVBAoTEEFsbCBUaGF0IGlzIEdvb2QxHjAcBgNVBAsTFUFsbCBUaGF0IGlz
IEdvb2QgU2l0ZTESMBAGA1UEAxMJbG9jYWxob3N0MIGfMA0GCSqGSIb3DQEBAQUA
A4GNADCBiQKBgQCrybsKbnq12ECi+4NH5qWHCEd20ernFnAhzRh5iydAgBAaO7P4
L3uI03keslSPLnNBgxNvjG1Y+IAmGTmuj9HJx8BSRZssUDkTGDQSECLLkKBkhd+z
f8EXlFDBa+6DI3KVqocrag+Jlo6FtPzWAP6Xo0ZpTFNnDUqr9bV4yYg0kwIDAQAB
oAAwDQYJKoZIhvcNAQEFBQADgYEATUzVMe8cBLCpUPSY6TFmskTyPICXoJsgPKF6
aTN/WiMqL6wSFfSUVBVPPKDX0sIzfuH9wRA5OfIovcfWwjbGoNhf1y9WkgfmnYtS
05MKNDTI5zp8PUhzbGMUH6fRvTifyviEM9uca4CGouVNU33GmLN+OvGH4bFcgdxQ
aKmRGao=
-----END CERTIFICATE REQUEST-----
